target datalayout = "e-m:e-p270:32:32-p271:32:32-p272:64:64-i64:64-i128:128-f80:128-n8:16:32:64-S128"
target triple = "x86_64-pc-linux-gnu"

%"class.std::__cxx11::basic_string" = type { %"struct.std::__cxx11::basic_string<char>::_Alloc_hider", i64, %union.anon.4 }
%"struct.std::__cxx11::basic_string<char>::_Alloc_hider" = type { ptr }
%union.anon.4 = type { i64, [8 x i8] }
%class.LogMessage = type { i8, %"class.std::__cxx11::basic_ostringstream" }
%"class.std::__cxx11::basic_ostringstream" = type { %"class.std::basic_ostream.base", %"class.std::__cxx11::basic_stringbuf", %"class.std::basic_ios" }
%"class.std::basic_ostream.base" = type { ptr }
%"class.std::__cxx11::basic_stringbuf" = type { %"class.std::basic_streambuf", i32, %"class.std::__cxx11::basic_string" }
%"class.std::basic_streambuf" = type { ptr, ptr, ptr, ptr, ptr, ptr, ptr, %"class.std::locale" }
%"class.std::locale" = type { ptr }
%"class.std::basic_ios" = type { %"class.std::ios_base", ptr, i8, i8, ptr, ptr, ptr, ptr }
%"class.std::ios_base" = type { ptr, i64, i64, i32, i32, i32, ptr, %"struct.std::ios_base::_Words", [8 x %"struct.std::ios_base::_Words"], i32, ptr, %"class.std::locale" }
%"struct.std::ios_base::_Words" = type { ptr, i64 }

@.str = private unnamed_addr constant [120 x i8] c"generated/home/dtcxzyw/WorkSpace/Projects/compilers/llvm-opt-benchmark/bench/duckdb/duckdb/third_party/re2/re2/parse.cc\00", align 1
@.str.11 = private unnamed_addr constant [15 x i8] c"Bad hex digit \00", align 1

; Function Attrs: inlinehint mustprogress nounwind uwtable
define linkonce_odr noundef i32 @_ZStorSt12_Ios_IostateS_(i32 noundef %0, i32 noundef %1) #3 comdat {
  %3 = alloca i32, align 4
  %4 = alloca i32, align 4
  store i32 %0, ptr %3, align 4, !tbaa !363
  store i32 %1, ptr %4, align 4, !tbaa !363
  %5 = load i32, ptr %3, align 4, !tbaa !363
  %6 = load i32, ptr %4, align 4, !tbaa !363
  %7 = or i32 %5, %6
  ret i32 %7
}

; Function Attrs: mustprogress nounwind uwtable
define available_externally noundef i32 @_ZNKSt9basic_iosIcSt11char_traitsIcEE7rdstateEv(ptr noundef nonnull align 8 dereferenceable(264) %0) #0 align 2 {
  %2 = alloca ptr, align 8
  store ptr %0, ptr %2, align 8, !tbaa !233
  %3 = load ptr, ptr %2, align 8
  %4 = getelementptr inbounds nuw %"class.std::ios_base", ptr %3, i32 0, i32 5
  %5 = load i32, ptr %4, align 8, !tbaa !364
  ret i32 %5
}

; Function Attrs: mustprogress nounwind uwtable
define linkonce_odr noundef i64 @_ZNSt11char_traitsIcE6lengthEPKc(ptr noundef %0) #0 comdat align 2 {
  %2 = alloca ptr, align 8
  store ptr %0, ptr %2, align 8, !tbaa !23
  %3 = load ptr, ptr %2, align 8, !tbaa !23
  %4 = call i64 @strlen(ptr noundef %3) #19
  ret i64 %4
}

; Function Attrs: mustprogress uwtable
define available_externally void @_ZNSt9basic_iosIcSt11char_traitsIcEE8setstateESt12_Ios_Iostate(ptr noundef nonnull align 8 dereferenceable(264) %0, i32 noundef %1) #1 align 2 {
  %3 = alloca ptr, align 8
  %4 = alloca i32, align 4
  store ptr %0, ptr %3, align 8, !tbaa !233
  store i32 %1, ptr %4, align 4, !tbaa !363
  %5 = load ptr, ptr %3, align 8
  %6 = call noundef i32 @_ZNKSt9basic_iosIcSt11char_traitsIcEE7rdstateEv(ptr noundef nonnull align 8 dereferenceable(264) %5)
  %7 = load i32, ptr %4, align 4, !tbaa !363
  %8 = call noundef i32 @_ZStorSt12_Ios_IostateS_(i32 noundef %6, i32 noundef %7)
  call void @_ZNSt9basic_iosIcSt11char_traitsIcEE5clearESt12_Ios_Iostate(ptr noundef nonnull align 8 dereferenceable(264) %5, i32 noundef %8)
  ret void
}

; Function Attrs: inlinehint mustprogress uwtable
define available_externally noundef nonnull align 8 dereferenceable(8) ptr @_ZStlsISt11char_traitsIcEERSt13basic_ostreamIcT_ES5_PKc(ptr noundef nonnull align 8 dereferenceable(8) %0, ptr noundef %1) #9 {
  %3 = alloca ptr, align 8
  %4 = alloca ptr, align 8
  store ptr %0, ptr %3, align 8, !tbaa !87
  store ptr %1, ptr %4, align 8, !tbaa !23
  %5 = load ptr, ptr %4, align 8, !tbaa !23
  %6 = icmp ne ptr %5, null
  br i1 %6, label %13, label %7

7:                                                ; preds = %2
  %8 = load ptr, ptr %3, align 8, !tbaa !87
  %9 = load ptr, ptr %8, align 8, !tbaa !89
  %10 = getelementptr i8, ptr %9, i64 -24
  %11 = load i64, ptr %10, align 8
  %12 = getelementptr inbounds i8, ptr %8, i64 %11
  call void @_ZNSt9basic_iosIcSt11char_traitsIcEE8setstateESt12_Ios_Iostate(ptr noundef nonnull align 8 dereferenceable(264) %12, i32 noundef 1)
  br label %19

13:                                               ; preds = %2
  %14 = load ptr, ptr %3, align 8, !tbaa !87
  %15 = load ptr, ptr %4, align 8, !tbaa !23
  %16 = load ptr, ptr %4, align 8, !tbaa !23
  %17 = call noundef i64 @_ZNSt11char_traitsIcE6lengthEPKc(ptr noundef %16)
  %18 = call noundef nonnull align 8 dereferenceable(8) ptr @_ZSt16__ostream_insertIcSt11char_traitsIcEERSt13basic_ostreamIT_T0_ES6_PKS3_l(ptr noundef nonnull align 8 dereferenceable(8) %14, ptr noundef %15, i64 noundef %17)
  br label %19

19:                                               ; preds = %13, %7
  %20 = load ptr, ptr %3, align 8, !tbaa !87
  ret ptr %20
}

; Function Attrs: mustprogress nounwind uwtable
define linkonce_odr hidden noundef nonnull align 8 dereferenceable(8) ptr @_ZN10LogMessage6streamEv(ptr noundef nonnull align 8 dereferenceable(384) %0) #0 comdat align 2 {
  %2 = alloca ptr, align 8
  store ptr %0, ptr %2, align 8, !tbaa !91
  %3 = load ptr, ptr %2, align 8
  %4 = getelementptr inbounds nuw %class.LogMessage, ptr %3, i32 0, i32 1
  ret ptr %4
}

; Function Attrs: mustprogress uwtable
define linkonce_odr hidden void @_ZN10LogMessageC2EPKci(ptr noundef nonnull align 8 dereferenceable(384) %0, ptr noundef %1, i32 noundef %2) unnamed_addr #1 comdat align 2 {
  %4 = alloca ptr, align 8
  %5 = alloca ptr, align 8
  %6 = alloca i32, align 4
  store ptr %0, ptr %4, align 8, !tbaa !91
  store ptr %1, ptr %5, align 8, !tbaa !23
  store i32 %2, ptr %6, align 4, !tbaa !3
  %7 = load ptr, ptr %4, align 8
  %8 = getelementptr inbounds nuw %class.LogMessage, ptr %7, i32 0, i32 0
  store i8 0, ptr %8, align 8, !tbaa !93
  %9 = getelementptr inbounds nuw %class.LogMessage, ptr %7, i32 0, i32 1
  call void @_ZNSt7__cxx1119basic_ostringstreamIcSt11char_traitsIcESaIcEEC1Ev(ptr noundef nonnull align 8 dereferenceable(112) %9)
  ret void
}

; Function Attrs: mustprogress uwtable
define internal noundef i32 @_ZN10duckdb_re2L5UnHexEi(i32 noundef %0) #1 personality ptr @__gxx_personality_v0 {
  %2 = alloca i32, align 4
  %3 = alloca i32, align 4
  %4 = alloca %class.LogMessage, align 8
  %5 = alloca ptr, align 8
  %6 = alloca i32, align 4
  store i32 %0, ptr %3, align 4, !tbaa !3
  %7 = load i32, ptr %3, align 4, !tbaa !3
  %8 = icmp sle i32 48, %7
  br i1 %8, label %9, label %15

9:                                                ; preds = %1
  %10 = load i32, ptr %3, align 4, !tbaa !3
  %11 = icmp sle i32 %10, 57
  br i1 %11, label %12, label %15

12:                                               ; preds = %9
  %13 = load i32, ptr %3, align 4, !tbaa !3
  %14 = sub nsw i32 %13, 48
  store i32 %14, ptr %2, align 4
  br label %46

15:                                               ; preds = %9, %1
  %16 = load i32, ptr %3, align 4, !tbaa !3
  %17 = icmp sle i32 65, %16
  br i1 %17, label %18, label %25

18:                                               ; preds = %15
  %19 = load i32, ptr %3, align 4, !tbaa !3
  %20 = icmp sle i32 %19, 70
  br i1 %20, label %21, label %25

21:                                               ; preds = %18
  %22 = load i32, ptr %3, align 4, !tbaa !3
  %23 = sub nsw i32 %22, 65
  %24 = add nsw i32 %23, 10
  store i32 %24, ptr %2, align 4
  br label %46

25:                                               ; preds = %18, %15
  %26 = load i32, ptr %3, align 4, !tbaa !3
  %27 = icmp sle i32 97, %26
  br i1 %27, label %28, label %35

28:                                               ; preds = %25
  %29 = load i32, ptr %3, align 4, !tbaa !3
  %30 = icmp sle i32 %29, 102
  br i1 %30, label %31, label %35

31:                                               ; preds = %28
  %32 = load i32, ptr %3, align 4, !tbaa !3
  %33 = sub nsw i32 %32, 97
  %34 = add nsw i32 %33, 10
  store i32 %34, ptr %2, align 4
  br label %46

35:                                               ; preds = %28, %25
  call void @llvm.lifetime.start.p0(i64 384, ptr %4) #19
  call void @_ZN10LogMessageC2EPKci(ptr noundef nonnull align 8 dereferenceable(384) %4, ptr noundef @.str, i32 noundef 1446)
  %36 = call noundef nonnull align 8 dereferenceable(8) ptr @_ZN10LogMessage6streamEv(ptr noundef nonnull align 8 dereferenceable(384) %4)
  %37 = invoke noundef nonnull align 8 dereferenceable(8) ptr @_ZStlsISt11char_traitsIcEERSt13basic_ostreamIcT_ES5_PKc(ptr noundef nonnull align 8 dereferenceable(8) %36, ptr noundef @.str.11)
          to label %38 unwind label %42

38:                                               ; preds = %35
  %39 = load i32, ptr %3, align 4, !tbaa !3
  %40 = invoke noundef nonnull align 8 dereferenceable(8) ptr @_ZNSolsEi(ptr noundef nonnull align 8 dereferenceable(8) %37, i32 noundef %39)
          to label %41 unwind label %42

41:                                               ; preds = %38
  call void @_ZN10LogMessageD2Ev(ptr noundef nonnull align 8 dereferenceable(384) %4) #19
  call void @llvm.lifetime.end.p0(i64 384, ptr %4) #19
  store i32 0, ptr %2, align 4
  br label %46

42:                                               ; preds = %38, %35
  %43 = landingpad { ptr, i32 }
          cleanup
  %44 = extractvalue { ptr, i32 } %43, 0
  store ptr %44, ptr %5, align 8
  %45 = extractvalue { ptr, i32 } %43, 1
  store i32 %45, ptr %6, align 4
  call void @_ZN10LogMessageD2Ev(ptr noundef nonnull align 8 dereferenceable(384) %4) #19
  call void @llvm.lifetime.end.p0(i64 384, ptr %4) #19
  br label %48

46:                                               ; preds = %41, %31, %21, %12
  %47 = load i32, ptr %2, align 4
  ret i32 %47

48:                                               ; preds = %42
  %49 = load ptr, ptr %5, align 8
  %50 = load i32, ptr %6, align 4
  %51 = insertvalue { ptr, i32 } poison, ptr %49, 0
  %52 = insertvalue { ptr, i32 } %51, i32 %50, 1
  resume { ptr, i32 } %52
}