; Function Attrs: mustprogress uwtable
define internal fastcc noundef range(i32 0, 16) i32 @_ZN10duckdb_re2L5UnHexEi(i32 noundef %0) unnamed_addr #9 personality ptr @__gxx_personality_v0 {
  %2 = alloca %class.LogMessage, align 8
  %3 = add i32 %0, -48
  %or.cond = icmp ult i32 %3, 10
  br i1 %or.cond, label %34, label %4

4:                                                ; preds = %1
  %5 = add i32 %0, -65
  %or.cond3 = icmp ult i32 %5, 6
  br i1 %or.cond3, label %6, label %8

6:                                                ; preds = %4
  %7 = add nsw i32 %0, -55
  br label %34

8:                                                ; preds = %4
  %9 = add i32 %0, -97
  %or.cond5 = icmp ult i32 %9, 6
  br i1 %or.cond5, label %10, label %12

10:                                               ; preds = %8
  %11 = add nsw i32 %0, -87
  br label %34

12:                                               ; preds = %8
  call void @llvm.lifetime.start.p0(i64 384, ptr nonnull %2) #32
  store i8 0, ptr %2, align 8, !tbaa !65
  %13 = getelementptr inbounds nuw i8, ptr %2, i64 8
  call void @_ZNSt7__cxx1119basic_ostringstreamIcSt11char_traitsIcESaIcEEC1Ev(ptr noundef nonnull align 8 dereferenceable(112) %13)
  %14 = invoke noundef nonnull align 8 dereferenceable(8) ptr @_ZSt16__ostream_insertIcSt11char_traitsIcEERSt13basic_ostreamIT_T0_ES6_PKS3_l(ptr noundef nonnull align 8 dereferenceable(8) %13, ptr noundef nonnull @.str.11, i64 noundef 14)
          to label %_ZStlsISt11char_traitsIcEERSt13basic_ostreamIcT_ES5_PKc.exit unwind label %32

_ZStlsISt11char_traitsIcEERSt13basic_ostreamIcT_ES5_PKc.exit: ; preds = %12
  %15 = invoke noundef nonnull align 8 dereferenceable(8) ptr @_ZNSolsEi(ptr noundef nonnull align 8 dereferenceable(8) %13, i32 noundef %0)
          to label %16 unwind label %32

16:                                               ; preds = %_ZStlsISt11char_traitsIcEERSt13basic_ostreamIcT_ES5_PKc.exit
  %17 = load ptr, ptr @_ZTTNSt7__cxx1119basic_ostringstreamIcSt11char_traitsIcESaIcEEE, align 8
  store ptr %17, ptr %13, align 8, !tbaa !75
  %18 = load ptr, ptr getelementptr inbounds nuw (i8, ptr @_ZTTNSt7__cxx1119basic_ostringstreamIcSt11char_traitsIcESaIcEEE, i64 24), align 8
  %19 = getelementptr i8, ptr %17, i64 -24
  %20 = load i64, ptr %19, align 8
  %21 = getelementptr inbounds i8, ptr %13, i64 %20
  store ptr %18, ptr %21, align 8, !tbaa !75
  %22 = getelementptr inbounds nuw i8, ptr %2, i64 16
  store ptr getelementptr inbounds nuw inrange(-16, 112) (i8, ptr @_ZTVNSt7__cxx1115basic_stringbufIcSt11char_traitsIcESaIcEEE, i64 16), ptr %22, align 8, !tbaa !75
  %23 = getelementptr inbounds nuw i8, ptr %2, i64 88
  %24 = load ptr, ptr %23, align 8, !tbaa !28
  %25 = getelementptr inbounds nuw i8, ptr %2, i64 104
  %26 = icmp eq ptr %24, %25
  br i1 %26, label %_ZNKSt7__cxx1112basic_stringIcSt11char_traitsIcESaIcEE11_M_is_localEv.exit.thread.i.i.i.i.i.i, label %_ZNKSt7__cxx1112basic_stringIcSt11char_traitsIcESaIcEE11_M_is_localEv.exit.i.i.i.i.i.i

_ZNKSt7__cxx1112basic_stringIcSt11char_traitsIcESaIcEE11_M_is_localEv.exit.thread.i.i.i.i.i.i: ; preds = %16
  %27 = getelementptr inbounds nuw i8, ptr %2, i64 96
  %28 = load i64, ptr %27, align 8, !tbaa !31
  %29 = icmp ult i64 %28, 16
  call void @llvm.assume(i1 %29)
  br label %_ZN10LogMessageD2Ev.exit

_ZNKSt7__cxx1112basic_stringIcSt11char_traitsIcESaIcEE11_M_is_localEv.exit.i.i.i.i.i.i: ; preds = %16
  call void @_ZdlPv(ptr noundef %24) #30
  br label %_ZN10LogMessageD2Ev.exit

_ZN10LogMessageD2Ev.exit:                         ; preds = %_ZNKSt7__cxx1112basic_stringIcSt11char_traitsIcESaIcEE11_M_is_localEv.exit.thread.i.i.i.i.i.i, %_ZNKSt7__cxx1112basic_stringIcSt11char_traitsIcESaIcEE11_M_is_localEv.exit.i.i.i.i.i.i
  store ptr getelementptr inbounds nuw inrange(-16, 112) (i8, ptr @_ZTVSt15basic_streambufIcSt11char_traitsIcEE, i64 16), ptr %22, align 8, !tbaa !75
  %30 = getelementptr inbounds nuw i8, ptr %2, i64 72
  call void @_ZNSt6localeD1Ev(ptr noundef nonnull align 8 dereferenceable(8) %30) #32
  %31 = getelementptr inbounds nuw i8, ptr %2, i64 120
  call void @_ZNSt8ios_baseD2Ev(ptr noundef nonnull align 8 dereferenceable(264) %31) #32
  call void @llvm.lifetime.end.p0(i64 384, ptr nonnull %2) #32
  br label %34

32:                                               ; preds = %12, %_ZStlsISt11char_traitsIcEERSt13basic_ostreamIcT_ES5_PKc.exit
  %33 = landingpad { ptr, i32 }
          cleanup
  call void @_ZN10LogMessageD2Ev(ptr noundef nonnull align 8 dereferenceable(384) %2) #32
  call void @llvm.lifetime.end.p0(i64 384, ptr nonnull %2) #32
  resume { ptr, i32 } %33

34:                                               ; preds = %1, %_ZN10LogMessageD2Ev.exit, %10, %6
  %.0 = phi i32 [ %7, %6 ], [ %11, %10 ], [ 0, %_ZN10LogMessageD2Ev.exit ], [ %3, %1 ]
  ret i32 %.0
}